Certificate:
    Data:
        Version: 3 (0x2)
        Serial Number: 4096 (0x1000)
        Signature Algorithm: sha256WithRSAEncryption
        Issuer: C=it, ST=Italia, L=Genoa, O=Honeypot, OU=God, CN=edoardo/emailAddress=oldaedo@gmail.com
        Validity
            Not Before: Mar  4 11:15:23 2025 GMT
            Not After : Mar  4 11:15:23 2026 GMT
        Subject: C=it, ST=Italia, O=Honeypot, OU=God, CN=edoardo/emailAddress=client.edoardo.oldani@gmail.com
        Subject Public Key Info:
            Public Key Algorithm: rsaEncryption
                Public-Key: (2048 bit)
                Modulus:
                    00:ce:3c:17:ec:1c:25:4f:ad:e2:0e:a1:ff:b4:65:
                    2f:fd:2e:5e:55:bb:a4:e6:54:ef:d8:af:31:7a:97:
                    8c:47:57:92:fb:9a:8f:d1:84:53:a0:35:3c:06:5f:
                    0b:46:5f:04:eb:5a:01:40:38:e6:f8:d0:dd:b2:66:
                    84:d3:99:15:14:b5:56:5a:1a:e7:b1:2b:ec:51:aa:
                    45:7f:cf:9c:66:04:85:f9:70:f1:48:7c:3d:23:4c:
                    1b:83:92:7d:e7:a1:7b:42:93:2f:70:ef:12:de:b4:
                    45:d2:49:6d:0d:b0:11:5c:2c:33:89:44:64:1a:52:
                    c8:1a:56:7a:79:27:fb:31:3b:54:98:33:d9:e1:09:
                    32:27:e5:10:51:17:02:7a:93:18:96:2c:8c:22:93:
                    7e:1c:c6:c9:c3:42:22:7d:59:03:f6:1e:8a:b0:80:
                    43:22:8b:20:f3:bf:09:fc:13:e0:3b:0a:4e:fa:61:
                    59:d8:34:f2:fb:51:5b:bd:ee:bb:85:3d:6e:f8:66:
                    ff:e4:6c:24:70:d9:35:37:d5:8f:0a:f7:09:fb:fd:
                    2b:8d:a1:f0:26:d1:0c:67:47:12:f7:b9:9c:f4:c2:
                    25:fe:13:58:4c:34:d1:70:ab:70:65:5b:d1:0f:b3:
                    48:33:0d:7d:62:a6:98:64:c1:2f:70:3e:7d:97:e9:
                    44:15
                Exponent: 65537 (0x10001)
        X509v3 extensions:
            X509v3 Basic Constraints: 
                CA:FALSE
            X509v3 Subject Key Identifier: 
                12:2C:C4:08:A6:A3:41:1F:AB:00:C4:08:09:2E:86:06:EF:98:05:2C
            X509v3 Authority Key Identifier: 
                6A:8D:0F:D8:A3:49:D3:58:70:AB:94:D7:23:42:14:85:95:79:F5:83
    Signature Algorithm: sha256WithRSAEncryption
    Signature Value:
        9e:01:95:69:9d:9c:dc:ef:18:e4:86:11:e3:c0:63:98:ee:f2:
        3b:62:e5:db:12:59:3a:17:97:23:70:64:45:e7:bf:24:fd:44:
        fe:80:3e:07:99:af:54:3f:47:af:35:f7:18:63:43:cc:71:5c:
        3f:b4:50:7f:ba:9b:95:b9:eb:be:93:e5:63:b1:3c:58:17:d3:
        88:fd:55:41:3b:b8:77:e0:31:09:d1:78:38:9f:33:45:2f:3a:
        81:d4:f3:97:ac:66:48:f0:5a:1d:78:7d:62:5d:2a:75:6a:fd:
        40:30:d6:2f:98:39:a0:43:3b:20:a8:b3:22:fe:cb:5e:b5:e5:
        24:a3:1d:72:fd:6d:e4:9e:99:f2:1e:78:af:bc:c9:22:fe:ea:
        da:08:88:c4:82:21:d7:56:85:92:9f:47:51:14:9b:7b:f5:18:
        31:b2:7a:9d:c0:e1:3e:2c:fb:dd:72:a9:3c:b1:e2:09:15:aa:
        4c:e4:4f:d7:1d:34:af:f7:75:be:5b:d3:96:ea:91:6c:34:73:
        30:dd:43:dc:0f:7b:58:e1:e1:4a:dc:2e:01:42:ad:81:96:e0:
        d5:a4:6c:bd:6a:82:05:84:cc:29:97:fd:0c:cf:97:33:9e:e9:
        72:59:4c:05:40:a3:d0:0f:8f:fa:51:cc:10:d2:cd:b8:45:89:
        cd:61:ae:a1
-----BEGIN CERTIFICATE-----
MIIDzzCCAregAwIBAgICEAAwDQYJKoZIhvcNAQELBQAwgYMxCzAJBgNVBAYTAml0
MQ8wDQYDVQQIDAZJdGFsaWExDjAMBgNVBAcMBUdlbm9hMREwDwYDVQQKDAhIb25l
eXBvdDEMMAoGA1UECwwDR29kMRAwDgYDVQQDDAdlZG9hcmRvMSAwHgYJKoZIhvcN
AQkBFhFvbGRhZWRvQGdtYWlsLmNvbTAeFw0yNTAzMDQxMTE1MjNaFw0yNjAzMDQx
MTE1MjNaMIGBMQswCQYDVQQGEwJpdDEPMA0GA1UECAwGSXRhbGlhMREwDwYDVQQK
DAhIb25leXBvdDEMMAoGA1UECwwDR29kMRAwDgYDVQQDDAdlZG9hcmRvMS4wLAYJ
KoZIhvcNAQkBFh9jbGllbnQuZWRvYXJkby5vbGRhbmlAZ21haWwuY29tMIIBIjAN
BgkqhkiG9w0BAQEFAAOCAQ8AMIIBCgKCAQEAzjwX7BwlT63iDqH/tGUv/S5eVbuk
5lTv2K8xepeMR1eS+5qP0YRToDU8Bl8LRl8E61oBQDjm+NDdsmaE05kVFLVWWhrn
sSvsUapFf8+cZgSF+XDxSHw9I0wbg5J956F7QpMvcO8S3rRF0kltDbARXCwziURk
GlLIGlZ6eSf7MTtUmDPZ4QkyJ+UQURcCepMYliyMIpN+HMbJw0IifVkD9h6KsIBD
Iosg878J/BPgOwpO+mFZ2DTy+1Fbve67hT1u+Gb/5GwkcNk1N9WPCvcJ+/0rjaHw
JtEMZ0cS97mc9MIl/hNYTDTRcKtwZVvRD7NIMw19YqaYZMEvcD59l+lEFQIDAQAB
o00wSzAJBgNVHRMEAjAAMB0GA1UdDgQWBBQSLMQIpqNBH6sAxAgJLoYG75gFLDAf
BgNVHSMEGDAWgBRqjQ/Yo0nTWHCrlNcjQhSFlXn1gzANBgkqhkiG9w0BAQsFAAOC
AQEAngGVaZ2c3O8Y5IYR48BjmO7yO2Ll2xJZOheXI3BkRee/JP1E/oA+B5mvVD9H
rzX3GGNDzHFcP7RQf7qblbnrvpPlY7E8WBfTiP1VQTu4d+AxCdF4OJ8zRS86gdTz
l6xmSPBaHXh9Yl0qdWr9QDDWL5g5oEM7IKizIv7LXrXlJKMdcv1t5J6Z8h54r7zJ
Iv7q2giIxIIh11aFkp9HURSbe/UYMbJ6ncDhPiz73XKpPLHiCRWqTORP1x00r/d1
vlvTluqRbDRzMN1D3A97WOHhStwuAUKtgZbg1aRsvWqCBYTMKZf9DM+XM57pcllM
BUCj0A+P+lHMENLNuEWJzWGuoQ==
-----END CERTIFICATE-----
